; Function Attrs: mustprogress uwtable
define hidden void @_ZN4cvc58internal6theory11quantifiers12QRepBoundExtC2ERNS0_3EnvERNS2_25QuantifiersBoundInferenceERNS2_16QuantifiersStateERNS2_12TermRegistryENS0_12NodeTemplateILb0EEE(ptr noundef nonnull align 8 dereferenceable(144) %this, ptr noundef nonnull align 8 dereferenceable(576) %env, ptr noundef nonnull align 8 dereferenceable(72) %qbi, ptr noundef nonnull align 1 %qs, ptr noundef nonnull align 8 dereferenceable(208) %tr, ptr nocapture noundef readonly %q) unnamed_addr #3 align 2 personality ptr @__gxx_personality_v0 {
entry:
  %agg.tmp = alloca %"class.cvc5::internal::NodeTemplate", align 8
  store ptr getelementptr inbounds ({ [8 x ptr] }, ptr @_ZTVN4cvc58internal6theory11quantifiers12QRepBoundExtE, i64 0, i32 0, i64 2), ptr %this, align 8
  %d_qbi = getelementptr inbounds i8, ptr %this, i64 8
  store ptr %qbi, ptr %d_qbi, align 8
  %call = tail call noundef ptr @_ZNK4cvc58internal6theory11quantifiers12TermRegistry8getModelEv(ptr noundef nonnull align 8 dereferenceable(208) %tr)
  %d_model = getelementptr inbounds i8, ptr %this, i64 16
  store ptr %call, ptr %d_model, align 8
  %0 = getelementptr inbounds i8, ptr %this, i64 32
  store i32 0, ptr %0, align 8
  %_M_parent.i.i.i.i.i = getelementptr inbounds i8, ptr %this, i64 40
  store ptr null, ptr %_M_parent.i.i.i.i.i, align 8
  %_M_left.i.i.i.i.i = getelementptr inbounds i8, ptr %this, i64 48
  store ptr %0, ptr %_M_left.i.i.i.i.i, align 8
  %_M_right.i.i.i.i.i = getelementptr inbounds i8, ptr %this, i64 56
  store ptr %0, ptr %_M_right.i.i.i.i.i, align 8
  %_M_node_count.i.i.i.i.i = getelementptr inbounds i8, ptr %this, i64 64
  store i64 0, ptr %_M_node_count.i.i.i.i.i, align 8
  %d_instMatch = getelementptr inbounds i8, ptr %this, i64 72
  %1 = load ptr, ptr %q, align 8
  store ptr %1, ptr %agg.tmp, align 8
  invoke void @_ZN4cvc58internal6theory11quantifiers9InstMatchC1ERNS0_3EnvERNS2_16QuantifiersStateERNS2_12TermRegistryENS0_12NodeTemplateILb0EEE(ptr noundef nonnull align 8 dereferenceable(72) %d_instMatch, ptr noundef nonnull align 8 dereferenceable(576) %env, ptr noundef nonnull align 1 %qs, ptr noundef nonnull align 8 dereferenceable(208) %tr, ptr noundef nonnull %agg.tmp)
          to label %invoke.cont5 unwind label %lpad4

invoke.cont5:                                     ; preds = %entry
  ret void

lpad4:                                            ; preds = %entry
  %2 = landingpad { ptr, i32 }
          cleanup
  %d_bound_int = getelementptr inbounds i8, ptr %this, i64 24
  call void @_ZNSt3mapImbSt4lessImESaISt4pairIKmbEEED2Ev(ptr noundef nonnull align 8 dereferenceable(48) %d_bound_int) #11
  resume { ptr, i32 } %2
}